                 U _Z18getPollyPluginInfov
                 U _Z18getPollyPluginInfov
                 U PollyCategory
                 U _ZN5polly27createPollyCanonicalizePassEv
                 U PollyCategory
                 U _ZN5polly27createPollyCanonicalizePassEv
                 U PollyCategory
0000000000000000 b _ZL17PollyDelinearizeX
0000000000000000 b _ZL21PollyAllowErrorBlocks
0000000000000000 b _ZL25XPollyProcessUnprofitable
0000000000000000 b _ZL27XPollyInvariantLoadHoisting
0000000000000000 b _ZL27XPollyUseRuntimeAliasChecks
0000000000000000 b _ZL29XPollyAllowUnsignedOperations
0000000000000000 D _ZN5polly15PollySkipFnAttrE
0000000000000000 B _ZN5polly16PollyDelinearizeE
0000000000000000 B _ZN5polly18PollyTrackFailuresE
0000000000000000 B _ZN5polly22PollyAllowFullFunctionE
0000000000000000 B _ZN5polly24PollyProcessUnprofitableE
0000000000000000 B _ZN5polly26PollyInvariantLoadHoistingE
0000000000000000 B _ZN5polly26PollyUseRuntimeAliasChecksE
                 U _ZN5polly27createPollyCanonicalizePassEv
0000000000000000 B _ZN5polly28PollyAllowUnsignedOperationsE
                 U PollyCategory
0000000000000000 b _ZL19PollyRemarksMinimal
0000000000000000 b _ZL20PollyPreciseInbounds
0000000000000000 b _ZL22PollyIgnoreParamBounds
0000000000000000 b _ZL22PollyPrintInstructions
0000000000000000 b _ZL24PollyPreciseFoldAccesses
                 U _ZN5polly24PollyProcessUnprofitableE
                 U _ZN5polly27createPollyCanonicalizePassEv
                 U PollyCategory
0000000000000000 b _ZL19PollyIgnoreInbounds
0000000000000000 b _ZL40PollyAllowDereferenceOfAllFunctionParams
                 U _ZN5polly16PollyDelinearizeE
                 U _ZN5polly26PollyInvariantLoadHoistingE
                 U _ZN5polly26PollyUseRuntimeAliasChecksE
                 U _ZN5polly27createPollyCanonicalizePassEv
                 U _ZN5polly24PollyProcessUnprofitableE
                 U PollyCategory
0000000000000000 B PollyDebugPrinting
                 U PollyCategory
0000000000000000 b _ZL13PollyParallel
0000000000000000 b _ZL18PollyParallelForce
                 U _ZN5polly21PollyVectorizerChoiceE
                 U _ZN5polly24PollyProcessUnprofitableE
                 U _ZN5polly27createPollyCanonicalizePassEv
                 U PollyCategory
                 U PollyDebugPrinting
                 U PollyCategory
0000000000000000 b _ZL15PollyOmpBackend
0000000000000000 b _ZL21PollyGenerateRTCPrint
0000000000000000 b _ZL24PollyGenerateExpressions
0000000000000000 b _ZL34PollyTargetFirstLevelCacheLineSize
                 U PollyCategory
                 U _ZN5polly27createPollyCanonicalizePassEv
                 U PollyCategory
0000000000000000 b _ZL15XPollyChunkSize
0000000000000000 b _ZL16XPollyNumThreads
0000000000000000 b _ZL16XPollyScheduling
0000000000000000 B _ZN5polly14PollyChunkSizeE
0000000000000000 B _ZN5polly15PollyNumThreadsE
0000000000000000 B _ZN5polly15PollySchedulingE
                 U _ZN5polly15PollySkipFnAttrE
                 U _ZN5polly14PollyChunkSizeE
                 U _ZN5polly15PollyNumThreadsE
                 U _ZN5polly15PollySchedulingE
                 U _ZN5polly14PollyChunkSizeE
                 U _ZN5polly15PollyNumThreadsE
                 U _ZN5polly15PollySchedulingE
                 U PollyCategory
                 U _ZN5polly27createPollyCanonicalizePassEv
PollyDebug.cpp.o:
0000000000000000 t _GLOBAL__sub_I_PollyDebug.cpp
0000000000000000 B PollyDebugFlag
0000000000000000 b _ZL10PollyDebug
0000000000000000 T _ZN5polly17getPollyDebugFlagEv
                 U PollyCategory
                 U _ZN5polly28PollyAllowUnsignedOperationsE
0000000000000000 B PollyCategory
0000000000000000 T _Z18getPollyPluginInfov
                 U _ZN4llvm31initializePollyCanonicalizePassERNS_12PassRegistryE
                 U _ZN5polly18PollyTrackFailuresE
0000000000000000 T _ZN5polly19registerPollyPassesERN4llvm11PassBuilderE
0000000000000000 T _ZN5polly21initializePollyPassesERN4llvm12PassRegistryE
0000000000000000 B _ZN5polly21PollyVectorizerChoiceE
                 U _ZN5polly27createPollyCanonicalizePassEv
0000000000000000 b _ZN5pollyL11PollyViewerE
0000000000000000 b _ZN5pollyL12PollyEnabledE
0000000000000000 b _ZN5pollyL12PollyPrinterE
0000000000000000 b _ZN5pollyL15PollyDetectOnlyE
0000000000000000 b _ZN5pollyL15PollyOnlyViewerE
0000000000000000 b _ZN5pollyL16PollyOnlyPrinterE
0000000000000000 t _ZN5pollyL22buildLatePollyPipelineERN4llvm11PassManagerINS0_8FunctionENS0_15AnalysisManagerIS2_JEEEJEEENS0_17OptimizationLevelE
0000000000000000 t _ZN5pollyL23buildEarlyPollyPipelineERN4llvm11PassManagerINS0_6ModuleENS0_15AnalysisManagerIS2_JEEEJEEENS0_17OptimizationLevelE
0000000000000000 t _ZN5pollyL24buildCommonPollyPipelineERN4llvm11PassManagerINS0_8FunctionENS0_15AnalysisManagerIS2_JEEEJEEENS0_17OptimizationLevelEb
0000000000000000 t _ZNSt17_Function_handlerIFbN4llvm9StringRefERNS0_11PassManagerINS0_8FunctionENS0_15AnalysisManagerIS3_JEEEJEEENS0_8ArrayRefINS0_11PassBuilder15PipelineElementEEEEZN5polly19registerPollyPassesERS9_E3$_1E10_M_managerERSt9_Any_dataRKSH_St18_Manager_operation
0000000000000000 t _ZNSt17_Function_handlerIFbN4llvm9StringRefERNS0_11PassManagerINS0_8FunctionENS0_15AnalysisManagerIS3_JEEEJEEENS0_8ArrayRefINS0_11PassBuilder15PipelineElementEEEEZN5polly19registerPollyPassesERS9_E3$_1E9_M_invokeERKSt9_Any_dataOS1_S7_OSB_
0000000000000000 t _ZNSt17_Function_handlerIFbRN4llvm11PassManagerINS0_6ModuleENS0_15AnalysisManagerIS2_JEEEJEEENS0_8ArrayRefINS0_11PassBuilder15PipelineElementEEEEZN5polly19registerPollyPassesERS8_E3$_2E10_M_managerERSt9_Any_dataRKSG_St18_Manager_operation
0000000000000000 t _ZNSt17_Function_handlerIFbRN4llvm11PassManagerINS0_6ModuleENS0_15AnalysisManagerIS2_JEEEJEEENS0_8ArrayRefINS0_11PassBuilder15PipelineElementEEEEZN5polly19registerPollyPassesERS8_E3$_2E9_M_invokeERKSt9_Any_dataS6_OSA_
0000000000000000 t _ZNSt17_Function_handlerIFvRN4llvm15AnalysisManagerINS0_8FunctionEJEEEEZN5polly19registerPollyPassesERNS0_11PassBuilderEE3$_0E10_M_managerERSt9_Any_dataRKSB_St18_Manager_operation
0000000000000000 t _ZNSt17_Function_handlerIFvRN4llvm15AnalysisManagerINS0_8FunctionEJEEEEZN5polly19registerPollyPassesERNS0_11PassBuilderEE3$_0E9_M_invokeERKSt9_Any_dataS4_
                 U PollyCategory
                 U PollyCategory
0000000000000000 b _ZL12PollyInliner
0000000000000000 b _ZL35InitializePollyCanonicalizePassFlag
0000000000000000 t _ZL35initializePollyCanonicalizePassOnceRN4llvm12PassRegistryE
0000000000000000 t _ZN12_GLOBAL__N_117PollyCanonicalize11runOnModuleERN4llvm6ModuleE
0000000000000000 t _ZN12_GLOBAL__N_117PollyCanonicalize13releaseMemoryEv
0000000000000000 b _ZN12_GLOBAL__N_117PollyCanonicalize2IDE
0000000000000000 t _ZN12_GLOBAL__N_117PollyCanonicalizeD0Ev
0000000000000000 t _ZN4llvm15callDefaultCtorIN12_GLOBAL__N_117PollyCanonicalizeETnNSt9enable_ifIXtlSt24is_default_constructibleIT_EEEbE4typeELb1EEEPNS_4PassEv
0000000000000000 T _ZN4llvm31initializePollyCanonicalizePassERNS_12PassRegistryE
0000000000000000 T _ZN5polly27createPollyCanonicalizePassEv
0000000000000000 t _ZNK12_GLOBAL__N_117PollyCanonicalize16getAnalysisUsageERN4llvm13AnalysisUsageE
0000000000000000 t _ZNK12_GLOBAL__N_117PollyCanonicalize5printERN4llvm11raw_ostreamEPKNS1_6ModuleE
0000000000000000 d _ZTVN12_GLOBAL__N_117PollyCanonicalizeE
                 U _ZN5polly27createPollyCanonicalizePassEv
                 U PollyCategory
                 U _ZN5polly27createPollyCanonicalizePassEv
                 U PollyCategory
                 U _ZN5polly21PollyVectorizerChoiceE
                 U PollyCategory
                 U PollyCategory
                 U _ZN5polly27createPollyCanonicalizePassEv
                 U _ZN5polly27createPollyCanonicalizePassEv
                 U _ZN5polly22PollyAllowFullFunctionE
                 U _ZN5polly27createPollyCanonicalizePassEv
                 U PollyCategory
                 U PollyCategory
0000000000000000 b _ZL30PollyPatternMatchingNcQuotient
